target datalayout = "e-m:e-p270:32:32-p271:32:32-p272:64:64-i64:64-i128:128-f80:128-n8:16:32:64-S128"
target triple = "x86_64-pc-linux-gnu"

%struct.AVFilterContext = type { ptr, ptr, ptr, ptr, ptr, i32, ptr, ptr, i32, ptr, ptr, i32, i32, ptr, ptr, ptr, ptr, i32, ptr, i32, i32 }
%struct.ExtractPlanesContext = type { ptr, i32, [4 x i32], [4 x i32], i32, i32, i32 }
%struct.AVFilterLink = type { ptr, ptr, ptr, ptr, i32, i32, i32, i32, %struct.AVRational, i32, i32, i32, %struct.AVChannelLayout, %struct.AVRational, ptr, i32, %struct.AVFilterFormatsConfig, %struct.AVFilterFormatsConfig }
%struct.AVChannelLayout = type { i32, i32, %union.anon.1, ptr }
%union.anon.1 = type { i64 }
%struct.AVRational = type { i32, i32 }
%struct.AVFilterFormatsConfig = type { ptr, ptr, ptr, ptr, ptr }
%struct.AVPixFmtDescriptor = type { ptr, i8, i8, i8, i64, [4 x %struct.AVComponentDescriptor], ptr }
%struct.AVComponentDescriptor = type { i32, i32, i32, i32, i32 }

; Function Attrs: nounwind uwtable
define internal i32 @config_output(ptr noundef %0) #1 {
  %2 = alloca ptr, align 8
  %3 = alloca ptr, align 8
  %4 = alloca ptr, align 8
  %5 = alloca ptr, align 8
  %6 = alloca ptr, align 8
  %7 = alloca i32, align 4
  store ptr %0, ptr %2, align 8, !tbaa !36
  call void @llvm.lifetime.start.p0(i64 8, ptr %3) #7
  %8 = load ptr, ptr %2, align 8, !tbaa !36
  %9 = getelementptr inbounds nuw %struct.AVFilterLink, ptr %8, i32 0, i32 0
  %10 = load ptr, ptr %9, align 8, !tbaa !83
  store ptr %10, ptr %3, align 8, !tbaa !4
  call void @llvm.lifetime.start.p0(i64 8, ptr %4) #7
  %11 = load ptr, ptr %3, align 8, !tbaa !4
  %12 = getelementptr inbounds nuw %struct.AVFilterContext, ptr %11, i32 0, i32 4
  %13 = load ptr, ptr %12, align 8, !tbaa !35
  %14 = getelementptr inbounds ptr, ptr %13, i64 0
  %15 = load ptr, ptr %14, align 8, !tbaa !36
  store ptr %15, ptr %4, align 8, !tbaa !36
  call void @llvm.lifetime.start.p0(i64 8, ptr %5) #7
  %16 = load ptr, ptr %3, align 8, !tbaa !4
  %17 = getelementptr inbounds nuw %struct.AVFilterContext, ptr %16, i32 0, i32 9
  %18 = load ptr, ptr %17, align 8, !tbaa !9
  store ptr %18, ptr %5, align 8, !tbaa !22
  call void @llvm.lifetime.start.p0(i64 8, ptr %6) #7
  %19 = load ptr, ptr %4, align 8, !tbaa !36
  %20 = getelementptr inbounds nuw %struct.AVFilterLink, ptr %19, i32 0, i32 5
  %21 = load i32, ptr %20, align 4, !tbaa !75
  %22 = call ptr @av_pix_fmt_desc_get(i32 noundef %21)
  store ptr %22, ptr %6, align 8, !tbaa !53
  call void @llvm.lifetime.start.p0(i64 4, ptr %7) #7
  %23 = load ptr, ptr %2, align 8, !tbaa !36
  %24 = getelementptr inbounds nuw %struct.AVFilterLink, ptr %23, i32 0, i32 1
  %25 = load ptr, ptr %24, align 8, !tbaa !84
  %26 = load ptr, ptr %3, align 8, !tbaa !4
  %27 = getelementptr inbounds nuw %struct.AVFilterContext, ptr %26, i32 0, i32 6
  %28 = load ptr, ptr %27, align 8, !tbaa !85
  %29 = ptrtoint ptr %25 to i64
  %30 = ptrtoint ptr %28 to i64
  %31 = sub i64 %29, %30
  %32 = sdiv exact i64 %31, 48
  %33 = trunc i64 %32 to i32
  store i32 %33, ptr %7, align 4, !tbaa !26
  %34 = load ptr, ptr %5, align 8, !tbaa !22
  %35 = getelementptr inbounds nuw %struct.ExtractPlanesContext, ptr %34, i32 0, i32 2
  %36 = load i32, ptr %7, align 4, !tbaa !26
  %37 = sext i32 %36 to i64
  %38 = getelementptr inbounds [4 x i32], ptr %35, i64 0, i64 %37
  %39 = load i32, ptr %38, align 4, !tbaa !26
  %40 = icmp eq i32 %39, 1
  br i1 %40, label %49, label %41

41:                                               ; preds = %1
  %42 = load ptr, ptr %5, align 8, !tbaa !22
  %43 = getelementptr inbounds nuw %struct.ExtractPlanesContext, ptr %42, i32 0, i32 2
  %44 = load i32, ptr %7, align 4, !tbaa !26
  %45 = sext i32 %44 to i64
  %46 = getelementptr inbounds [4 x i32], ptr %43, i64 0, i64 %45
  %47 = load i32, ptr %46, align 4, !tbaa !26
  %48 = icmp eq i32 %47, 2
  br i1 %48, label %49, label %120

49:                                               ; preds = %41, %1
  %50 = load ptr, ptr %6, align 8, !tbaa !53
  %51 = getelementptr inbounds nuw %struct.AVPixFmtDescriptor, ptr %50, i32 0, i32 3
  %52 = load i8, ptr %51, align 2, !tbaa !86
  %53 = call i1 @llvm.is.constant.i8(i8 %52)
  br i1 %53, label %65, label %54

54:                                               ; preds = %49
  %55 = load ptr, ptr %4, align 8, !tbaa !36
  %56 = getelementptr inbounds nuw %struct.AVFilterLink, ptr %55, i32 0, i32 7
  %57 = load i32, ptr %56, align 4, !tbaa !87
  %58 = sub nsw i32 0, %57
  %59 = load ptr, ptr %6, align 8, !tbaa !53
  %60 = getelementptr inbounds nuw %struct.AVPixFmtDescriptor, ptr %59, i32 0, i32 3
  %61 = load i8, ptr %60, align 2, !tbaa !86
  %62 = zext i8 %61 to i32
  %63 = ashr i32 %58, %62
  %64 = sub nsw i32 0, %63
  br label %81

65:                                               ; preds = %49
  %66 = load ptr, ptr %4, align 8, !tbaa !36
  %67 = getelementptr inbounds nuw %struct.AVFilterLink, ptr %66, i32 0, i32 7
  %68 = load i32, ptr %67, align 4, !tbaa !87
  %69 = load ptr, ptr %6, align 8, !tbaa !53
  %70 = getelementptr inbounds nuw %struct.AVPixFmtDescriptor, ptr %69, i32 0, i32 3
  %71 = load i8, ptr %70, align 2, !tbaa !86
  %72 = zext i8 %71 to i32
  %73 = shl i32 1, %72
  %74 = add nsw i32 %68, %73
  %75 = sub nsw i32 %74, 1
  %76 = load ptr, ptr %6, align 8, !tbaa !53
  %77 = getelementptr inbounds nuw %struct.AVPixFmtDescriptor, ptr %76, i32 0, i32 3
  %78 = load i8, ptr %77, align 2, !tbaa !86
  %79 = zext i8 %78 to i32
  %80 = ashr i32 %75, %79
  br label %81

81:                                               ; preds = %65, %54
  %82 = phi i32 [ %64, %54 ], [ %80, %65 ]
  %83 = load ptr, ptr %2, align 8, !tbaa !36
  %84 = getelementptr inbounds nuw %struct.AVFilterLink, ptr %83, i32 0, i32 7
  store i32 %82, ptr %84, align 4, !tbaa !87
  %85 = load ptr, ptr %6, align 8, !tbaa !53
  %86 = getelementptr inbounds nuw %struct.AVPixFmtDescriptor, ptr %85, i32 0, i32 2
  %87 = load i8, ptr %86, align 1, !tbaa !88
  %88 = call i1 @llvm.is.constant.i8(i8 %87)
  br i1 %88, label %100, label %89

89:                                               ; preds = %81
  %90 = load ptr, ptr %4, align 8, !tbaa !36
  %91 = getelementptr inbounds nuw %struct.AVFilterLink, ptr %90, i32 0, i32 6
  %92 = load i32, ptr %91, align 8, !tbaa !77
  %93 = sub nsw i32 0, %92
  %94 = load ptr, ptr %6, align 8, !tbaa !53
  %95 = getelementptr inbounds nuw %struct.AVPixFmtDescriptor, ptr %94, i32 0, i32 2
  %96 = load i8, ptr %95, align 1, !tbaa !88
  %97 = zext i8 %96 to i32
  %98 = ashr i32 %93, %97
  %99 = sub nsw i32 0, %98
  br label %116

100:                                              ; preds = %81
  %101 = load ptr, ptr %4, align 8, !tbaa !36
  %102 = getelementptr inbounds nuw %struct.AVFilterLink, ptr %101, i32 0, i32 6
  %103 = load i32, ptr %102, align 8, !tbaa !77
  %104 = load ptr, ptr %6, align 8, !tbaa !53
  %105 = getelementptr inbounds nuw %struct.AVPixFmtDescriptor, ptr %104, i32 0, i32 2
  %106 = load i8, ptr %105, align 1, !tbaa !88
  %107 = zext i8 %106 to i32
  %108 = shl i32 1, %107
  %109 = add nsw i32 %103, %108
  %110 = sub nsw i32 %109, 1
  %111 = load ptr, ptr %6, align 8, !tbaa !53
  %112 = getelementptr inbounds nuw %struct.AVPixFmtDescriptor, ptr %111, i32 0, i32 2
  %113 = load i8, ptr %112, align 1, !tbaa !88
  %114 = zext i8 %113 to i32
  %115 = ashr i32 %110, %114
  br label %116

116:                                              ; preds = %100, %89
  %117 = phi i32 [ %99, %89 ], [ %115, %100 ]
  %118 = load ptr, ptr %2, align 8, !tbaa !36
  %119 = getelementptr inbounds nuw %struct.AVFilterLink, ptr %118, i32 0, i32 6
  store i32 %117, ptr %119, align 8, !tbaa !77
  br label %120

120:                                              ; preds = %116, %41
  call void @llvm.lifetime.end.p0(i64 4, ptr %7) #7
  call void @llvm.lifetime.end.p0(i64 8, ptr %6) #7
  call void @llvm.lifetime.end.p0(i64 8, ptr %5) #7
  call void @llvm.lifetime.end.p0(i64 8, ptr %4) #7
  call void @llvm.lifetime.end.p0(i64 8, ptr %3) #7
  ret i32 0
}