; Function Attrs: nounwind uwtable
define internal noundef i32 @config_output(ptr noundef captures(none) %0) #1 {
  %2 = load ptr, ptr %0, align 8, !tbaa !62
  %3 = getelementptr inbounds nuw i8, ptr %2, i64 32
  %4 = load ptr, ptr %3, align 8, !tbaa !30
  %5 = load ptr, ptr %4, align 8, !tbaa !31
  %6 = getelementptr inbounds nuw i8, ptr %2, i64 72
  %7 = load ptr, ptr %6, align 8, !tbaa !4
  %8 = getelementptr inbounds nuw i8, ptr %5, i64 36
  %9 = load i32, ptr %8, align 4, !tbaa !86
  %10 = tail call ptr @av_pix_fmt_desc_get(i32 noundef %9) #6
  %11 = getelementptr inbounds nuw i8, ptr %0, i64 8
  %12 = load ptr, ptr %11, align 8, !tbaa !63
  %13 = getelementptr inbounds nuw i8, ptr %2, i64 48
  %14 = load ptr, ptr %13, align 8, !tbaa !64
  %15 = ptrtoint ptr %12 to i64
  %16 = ptrtoint ptr %14 to i64
  %17 = sub i64 %15, %16
  %18 = sdiv exact i64 %17, 48
  %19 = getelementptr inbounds nuw i8, ptr %7, i64 12
  %sext = shl i64 %18, 32
  %20 = ashr exact i64 %sext, 32
  %21 = getelementptr inbounds [4 x i32], ptr %19, i64 0, i64 %20
  %22 = load i32, ptr %21, align 4, !tbaa !23
  %.off = add i32 %22, -1
  %switch = icmp ult i32 %.off, 2
  br i1 %switch, label %23, label %42

23:                                               ; preds = %1
  %24 = getelementptr inbounds nuw i8, ptr %5, i64 44
  %25 = load i32, ptr %24, align 4, !tbaa !66
  %26 = sub nsw i32 0, %25
  %27 = getelementptr inbounds nuw i8, ptr %10, i64 10
  %28 = load i8, ptr %27, align 2, !tbaa !89
  %29 = zext nneg i8 %28 to i32
  %30 = ashr i32 %26, %29
  %31 = sub nsw i32 0, %30
  %32 = getelementptr inbounds nuw i8, ptr %0, i64 44
  store i32 %31, ptr %32, align 4, !tbaa !66
  %33 = getelementptr inbounds nuw i8, ptr %5, i64 40
  %34 = load i32, ptr %33, align 8, !tbaa !65
  %35 = sub nsw i32 0, %34
  %36 = getelementptr inbounds nuw i8, ptr %10, i64 9
  %37 = load i8, ptr %36, align 1, !tbaa !90
  %38 = zext nneg i8 %37 to i32
  %39 = ashr i32 %35, %38
  %40 = sub nsw i32 0, %39
  %41 = getelementptr inbounds nuw i8, ptr %0, i64 40
  store i32 %40, ptr %41, align 8, !tbaa !65
  br label %42

42:                                               ; preds = %1, %23
  ret i32 0
}